target datalayout = "e-m:e-p270:32:32-p271:32:32-p272:64:64-i64:64-i128:128-f80:128-n8:16:32:64-S128"
target triple = "x86_64-pc-linux-gnu"

@.str.141 = private unnamed_addr constant [12 x i8] c"%05x (Null)\00", align 1
@.str.142 = private unnamed_addr constant [17 x i8] c"%05x (SP ID %4d)\00", align 1
@.str.143 = private unnamed_addr constant [16 x i8] c"%05x (HPLMN ID)\00", align 1

; Function Attrs: nounwind uwtable
define internal void @rach_sp_hplmn_id_fmt(ptr noundef %0, i32 noundef %1) #0 {
  %3 = alloca ptr, align 8
  %4 = alloca i32, align 4
  store ptr %0, ptr %3, align 8
  store i32 %1, ptr %4, align 4
  %5 = load i32, ptr %4, align 4
  %6 = icmp eq i32 %5, 1048575
  br i1 %6, label %7, label %11

7:                                                ; preds = %2
  %8 = load ptr, ptr %3, align 8
  %9 = load i32, ptr %4, align 4
  %10 = call i32 (ptr, i64, ptr, ...) @snprintf(ptr noundef %8, i64 noundef 240, ptr noundef @.str.141, i32 noundef %9) #4
  br label %26

11:                                               ; preds = %2
  %12 = load i32, ptr %4, align 4
  %13 = and i32 %12, 1015808
  %14 = icmp eq i32 %13, 1015808
  br i1 %14, label %15, label %21

15:                                               ; preds = %11
  %16 = load ptr, ptr %3, align 8
  %17 = load i32, ptr %4, align 4
  %18 = load i32, ptr %4, align 4
  %19 = and i32 %18, 32767
  %20 = call i32 (ptr, i64, ptr, ...) @snprintf(ptr noundef %16, i64 noundef 240, ptr noundef @.str.142, i32 noundef %17, i32 noundef %19) #4
  br label %25

21:                                               ; preds = %11
  %22 = load ptr, ptr %3, align 8
  %23 = load i32, ptr %4, align 4
  %24 = call i32 (ptr, i64, ptr, ...) @snprintf(ptr noundef %22, i64 noundef 240, ptr noundef @.str.143, i32 noundef %23) #4
  br label %25

25:                                               ; preds = %21, %15
  br label %26

26:                                               ; preds = %25, %7
  ret void
}