; Function Attrs: nofree nounwind uwtable
define internal void @rach_sp_hplmn_id_fmt(ptr noundef writeonly captures(none) %0, i32 noundef %1) #1 {
  %3 = icmp eq i32 %1, 1048575
  br i1 %3, label %4, label %6

4:                                                ; preds = %2
  %5 = tail call i32 (ptr, i64, ptr, ...) @snprintf(ptr noundef nonnull dereferenceable(1) %0, i64 noundef 240, ptr noundef nonnull @.str.141, i32 noundef 1048575) #7
  br label %14

6:                                                ; preds = %2
  %7 = and i32 %1, 1015808
  %8 = icmp eq i32 %7, 1015808
  br i1 %8, label %9, label %12

9:                                                ; preds = %6
  %10 = and i32 %1, 32767
  %11 = tail call i32 (ptr, i64, ptr, ...) @snprintf(ptr noundef nonnull dereferenceable(1) %0, i64 noundef 240, ptr noundef nonnull @.str.142, i32 noundef %1, i32 noundef %10) #7
  br label %14

12:                                               ; preds = %6
  %13 = tail call i32 (ptr, i64, ptr, ...) @snprintf(ptr noundef nonnull dereferenceable(1) %0, i64 noundef 240, ptr noundef nonnull @.str.143, i32 noundef %1) #7
  br label %14

14:                                               ; preds = %9, %12, %4
  ret void
}